; Function Attrs: nounwind uwtable
define dso_local i32 @__archive_write_filter(ptr noundef %0, ptr noundef %1, i64 noundef %2) local_unnamed_addr #3 {
  %4 = getelementptr inbounds nuw i8, ptr %0, i64 100
  %5 = load i32, ptr %4, align 4, !tbaa !29
  %.not = icmp eq i32 %5, 2
  br i1 %.not, label %6, label %16

6:                                                ; preds = %3
  %7 = icmp eq i64 %2, 0
  br i1 %7, label %16, label %8

8:                                                ; preds = %6
  %9 = getelementptr inbounds nuw i8, ptr %0, i64 40
  %10 = load ptr, ptr %9, align 8, !tbaa !33
  %11 = icmp eq ptr %10, null
  br i1 %11, label %16, label %12

12:                                               ; preds = %8
  %13 = tail call i32 %10(ptr noundef nonnull %0, ptr noundef %1, i64 noundef %2) #13
  %14 = load i64, ptr %0, align 8, !tbaa !34
  %15 = add i64 %14, %2
  store i64 %15, ptr %0, align 8, !tbaa !34
  br label %16

16:                                               ; preds = %8, %6, %3, %12
  %.0 = phi i32 [ %13, %12 ], [ -30, %3 ], [ 0, %6 ], [ -30, %8 ]
  ret i32 %.0
}